target datalayout = "e-m:e-p270:32:32-p271:32:32-p272:64:64-i64:64-i128:128-f80:128-n8:16:32:64-S128"
target triple = "x86_64-pc-linux-gnu"

%"class.pxrInternal_v0_24__pxrReserved__::HdDataSourceLocator" = type { %"class.pxrInternal_v0_24__pxrReserved__::TfSmallVector" }
%"class.pxrInternal_v0_24__pxrReserved__::TfSmallVector" = type { %"union.pxrInternal_v0_24__pxrReserved__::TfSmallVectorBase::_DataUnion", i32, i32 }
%"union.pxrInternal_v0_24__pxrReserved__::TfSmallVectorBase::_DataUnion" = type { ptr, [40 x i8] }
%"class.pxrInternal_v0_24__pxrReserved__::HdDataSourceLocatorSet" = type { %"class.pxrInternal_v0_24__pxrReserved__::TfSmallVector.0" }
%"class.pxrInternal_v0_24__pxrReserved__::TfSmallVector.0" = type { %"union.pxrInternal_v0_24__pxrReserved__::TfSmallVectorBase::_DataUnion.1", i32, i32 }
%"union.pxrInternal_v0_24__pxrReserved__::TfSmallVectorBase::_DataUnion.1" = type { ptr, [440 x i8] }
%"class.std::__cxx11::basic_string" = type { %"struct.std::__cxx11::basic_string<char>::_Alloc_hider", i64, %union.anon }
%"struct.std::__cxx11::basic_string<char>::_Alloc_hider" = type { ptr }
%union.anon = type { i64, [8 x i8] }

@.str = private unnamed_addr constant [2 x i8] c"/\00", align 1
@.str.7 = private unnamed_addr constant [3 x i8] c"{ \00", align 1
@.str.8 = private unnamed_addr constant [3 x i8] c", \00", align 1
@.str.9 = private unnamed_addr constant [3 x i8] c" }\00", align 1

; Function Attrs: mustprogress nounwind uwtable
define linkonce_odr noundef ptr @_ZNK32pxrInternal_v0_24__pxrReserved__17TfSmallVectorBase10_DataUnionILm56ELm8ELm8EE16GetRemoteStorageEv(ptr noundef nonnull align 8 dereferenceable(448) %0) #2 comdat align 2 {
  %2 = alloca ptr, align 8
  store ptr %0, ptr %2, align 8
  %3 = load ptr, ptr %2, align 8
  %4 = load ptr, ptr %3, align 8
  ret ptr %4
}

; Function Attrs: mustprogress nounwind uwtable
define linkonce_odr noundef ptr @_ZNK32pxrInternal_v0_24__pxrReserved__17TfSmallVectorBase10_DataUnionILm56ELm8ELm8EE15GetLocalStorageEv(ptr noundef nonnull align 8 dereferenceable(448) %0) #2 comdat align 2 {
  %2 = alloca ptr, align 8
  store ptr %0, ptr %2, align 8
  %3 = load ptr, ptr %2, align 8
  %4 = getelementptr inbounds [448 x i8], ptr %3, i64 0, i64 0
  ret ptr %4
}

; Function Attrs: mustprogress uwtable
define linkonce_odr noundef ptr @_ZNK32pxrInternal_v0_24__pxrReserved__13TfSmallVectorINS_19HdDataSourceLocatorELj8EE17_GetRemoteStorageEv(ptr noundef nonnull align 8 dereferenceable(456) %0) #0 comdat align 2 {
  %2 = alloca ptr, align 8
  store ptr %0, ptr %2, align 8
  %3 = load ptr, ptr %2, align 8
  %4 = getelementptr inbounds nuw %"class.pxrInternal_v0_24__pxrReserved__::TfSmallVector.0", ptr %3, i32 0, i32 0
  %5 = call noundef ptr @_ZNK32pxrInternal_v0_24__pxrReserved__17TfSmallVectorBase10_DataUnionILm56ELm8ELm8EE16GetRemoteStorageEv(ptr noundef nonnull align 8 dereferenceable(448) %4)
  ret ptr %5
}

; Function Attrs: mustprogress uwtable
define linkonce_odr noundef ptr @_ZNK32pxrInternal_v0_24__pxrReserved__13TfSmallVectorINS_19HdDataSourceLocatorELj8EE16_GetLocalStorageEv(ptr noundef nonnull align 8 dereferenceable(456) %0) #0 comdat align 2 {
  %2 = alloca ptr, align 8
  store ptr %0, ptr %2, align 8
  %3 = load ptr, ptr %2, align 8
  %4 = getelementptr inbounds nuw %"class.pxrInternal_v0_24__pxrReserved__::TfSmallVector.0", ptr %3, i32 0, i32 0
  %5 = call noundef ptr @_ZNK32pxrInternal_v0_24__pxrReserved__17TfSmallVectorBase10_DataUnionILm56ELm8ELm8EE15GetLocalStorageEv(ptr noundef nonnull align 8 dereferenceable(448) %4)
  ret ptr %5
}

; Function Attrs: mustprogress nounwind uwtable
define linkonce_odr noundef zeroext i1 @_ZNK32pxrInternal_v0_24__pxrReserved__13TfSmallVectorINS_19HdDataSourceLocatorELj8EE8_IsLocalEv(ptr noundef nonnull align 8 dereferenceable(456) %0) #2 comdat align 2 {
  %2 = alloca ptr, align 8
  store ptr %0, ptr %2, align 8
  %3 = load ptr, ptr %2, align 8
  %4 = getelementptr inbounds nuw %"class.pxrInternal_v0_24__pxrReserved__::TfSmallVector.0", ptr %3, i32 0, i32 2
  %5 = load i32, ptr %4, align 4
  %6 = icmp ule i32 %5, 8
  ret i1 %6
}

; Function Attrs: mustprogress nounwind uwtable
define linkonce_odr noundef i64 @_ZNK32pxrInternal_v0_24__pxrReserved__13TfSmallVectorINS_19HdDataSourceLocatorELj8EE4sizeEv(ptr noundef nonnull align 8 dereferenceable(456) %0) #2 comdat align 2 {
  %2 = alloca ptr, align 8
  store ptr %0, ptr %2, align 8
  %3 = load ptr, ptr %2, align 8
  %4 = getelementptr inbounds nuw %"class.pxrInternal_v0_24__pxrReserved__::TfSmallVector.0", ptr %3, i32 0, i32 1
  %5 = load i32, ptr %4, align 8
  %6 = zext i32 %5 to i64
  ret i64 %6
}

; Function Attrs: mustprogress uwtable
define linkonce_odr noundef ptr @_ZNK32pxrInternal_v0_24__pxrReserved__13TfSmallVectorINS_19HdDataSourceLocatorELj8EE11_GetStorageEv(ptr noundef nonnull align 8 dereferenceable(456) %0) #0 comdat align 2 {
  %2 = alloca ptr, align 8
  store ptr %0, ptr %2, align 8
  %3 = load ptr, ptr %2, align 8
  %4 = call noundef zeroext i1 @_ZNK32pxrInternal_v0_24__pxrReserved__13TfSmallVectorINS_19HdDataSourceLocatorELj8EE8_IsLocalEv(ptr noundef nonnull align 8 dereferenceable(456) %3)
  br i1 %4, label %5, label %7

5:                                                ; preds = %1
  %6 = call noundef ptr @_ZNK32pxrInternal_v0_24__pxrReserved__13TfSmallVectorINS_19HdDataSourceLocatorELj8EE16_GetLocalStorageEv(ptr noundef nonnull align 8 dereferenceable(456) %3)
  br label %9

7:                                                ; preds = %1
  %8 = call noundef ptr @_ZNK32pxrInternal_v0_24__pxrReserved__13TfSmallVectorINS_19HdDataSourceLocatorELj8EE17_GetRemoteStorageEv(ptr noundef nonnull align 8 dereferenceable(456) %3)
  br label %9

9:                                                ; preds = %7, %5
  %10 = phi ptr [ %6, %5 ], [ %8, %7 ]
  ret ptr %10
}

; Function Attrs: mustprogress uwtable
define linkonce_odr noundef ptr @_ZNK32pxrInternal_v0_24__pxrReserved__13TfSmallVectorINS_19HdDataSourceLocatorELj8EE3endEv(ptr noundef nonnull align 8 dereferenceable(456) %0) #0 comdat align 2 {
  %2 = alloca ptr, align 8
  store ptr %0, ptr %2, align 8
  %3 = load ptr, ptr %2, align 8
  %4 = call noundef ptr @_ZNK32pxrInternal_v0_24__pxrReserved__13TfSmallVectorINS_19HdDataSourceLocatorELj8EE11_GetStorageEv(ptr noundef nonnull align 8 dereferenceable(456) %3)
  %5 = call noundef i64 @_ZNK32pxrInternal_v0_24__pxrReserved__13TfSmallVectorINS_19HdDataSourceLocatorELj8EE4sizeEv(ptr noundef nonnull align 8 dereferenceable(456) %3)
  %6 = getelementptr inbounds %"class.pxrInternal_v0_24__pxrReserved__::HdDataSourceLocator", ptr %4, i64 %5
  ret ptr %6
}

; Function Attrs: mustprogress uwtable
define linkonce_odr noundef ptr @_ZNK32pxrInternal_v0_24__pxrReserved__13TfSmallVectorINS_19HdDataSourceLocatorELj8EE5beginEv(ptr noundef nonnull align 8 dereferenceable(456) %0) #0 comdat align 2 {
  %2 = alloca ptr, align 8
  store ptr %0, ptr %2, align 8
  %3 = load ptr, ptr %2, align 8
  %4 = call noundef ptr @_ZNK32pxrInternal_v0_24__pxrReserved__13TfSmallVectorINS_19HdDataSourceLocatorELj8EE11_GetStorageEv(ptr noundef nonnull align 8 dereferenceable(456) %3)
  ret ptr %4
}

; Function Attrs: mustprogress uwtable
define noundef nonnull align 8 dereferenceable(8) ptr @_ZN32pxrInternal_v0_24__pxrReserved__lsERSoRKNS_19HdDataSourceLocatorE(ptr noundef nonnull align 8 dereferenceable(8) %0, ptr noundef nonnull align 8 dereferenceable(56) %1) #0 personality ptr @__gxx_personality_v0 {
  %3 = alloca ptr, align 8
  %4 = alloca ptr, align 8
  %5 = alloca %"class.std::__cxx11::basic_string", align 8
  %6 = alloca ptr, align 8
  %7 = alloca i32, align 4
  store ptr %0, ptr %3, align 8
  store ptr %1, ptr %4, align 8
  %8 = load ptr, ptr %3, align 8
  %9 = load ptr, ptr %4, align 8
  call void @_ZNK32pxrInternal_v0_24__pxrReserved__19HdDataSourceLocator9GetStringB5cxx11EPKc(ptr dead_on_unwind writable sret(%"class.std::__cxx11::basic_string") align 8 %5, ptr noundef nonnull align 8 dereferenceable(56) %9, ptr noundef @.str)
  %10 = invoke noundef nonnull align 8 dereferenceable(8) ptr @_ZStlsIcSt11char_traitsIcESaIcEERSt13basic_ostreamIT_T0_ES7_RKNSt7__cxx1112basic_stringIS4_S5_T1_EE(ptr noundef nonnull align 8 dereferenceable(8) %8, ptr noundef nonnull align 8 dereferenceable(32) %5)
          to label %11 unwind label %12

11:                                               ; preds = %2
  call void @_ZNSt7__cxx1112basic_stringIcSt11char_traitsIcESaIcEED1Ev(ptr noundef nonnull align 8 dereferenceable(32) %5) #1
  ret ptr %10

12:                                               ; preds = %2
  %13 = landingpad { ptr, i32 }
          cleanup
  %14 = extractvalue { ptr, i32 } %13, 0
  store ptr %14, ptr %6, align 8
  %15 = extractvalue { ptr, i32 } %13, 1
  store i32 %15, ptr %7, align 4
  call void @_ZNSt7__cxx1112basic_stringIcSt11char_traitsIcESaIcEED1Ev(ptr noundef nonnull align 8 dereferenceable(32) %5) #1
  br label %16

16:                                               ; preds = %12
  %17 = load ptr, ptr %6, align 8
  %18 = load i32, ptr %7, align 4
  %19 = insertvalue { ptr, i32 } poison, ptr %17, 0
  %20 = insertvalue { ptr, i32 } %19, i32 %18, 1
  resume { ptr, i32 } %20
}

; Function Attrs: mustprogress uwtable
define noundef ptr @_ZNK32pxrInternal_v0_24__pxrReserved__22HdDataSourceLocatorSet3endEv(ptr noundef nonnull align 8 dereferenceable(456) %0) #0 align 2 {
  %2 = alloca ptr, align 8
  store ptr %0, ptr %2, align 8
  %3 = load ptr, ptr %2, align 8
  %4 = getelementptr inbounds nuw %"class.pxrInternal_v0_24__pxrReserved__::HdDataSourceLocatorSet", ptr %3, i32 0, i32 0
  %5 = call noundef ptr @_ZNK32pxrInternal_v0_24__pxrReserved__13TfSmallVectorINS_19HdDataSourceLocatorELj8EE3endEv(ptr noundef nonnull align 8 dereferenceable(456) %4)
  ret ptr %5
}

; Function Attrs: mustprogress uwtable
define noundef ptr @_ZNK32pxrInternal_v0_24__pxrReserved__22HdDataSourceLocatorSet5beginEv(ptr noundef nonnull align 8 dereferenceable(456) %0) #0 align 2 {
  %2 = alloca ptr, align 8
  store ptr %0, ptr %2, align 8
  %3 = load ptr, ptr %2, align 8
  %4 = getelementptr inbounds nuw %"class.pxrInternal_v0_24__pxrReserved__::HdDataSourceLocatorSet", ptr %3, i32 0, i32 0
  %5 = call noundef ptr @_ZNK32pxrInternal_v0_24__pxrReserved__13TfSmallVectorINS_19HdDataSourceLocatorELj8EE5beginEv(ptr noundef nonnull align 8 dereferenceable(456) %4)
  ret ptr %5
}

; Function Attrs: mustprogress uwtable
define noundef nonnull align 8 dereferenceable(8) ptr @_ZN32pxrInternal_v0_24__pxrReserved__lsERSoRKNS_22HdDataSourceLocatorSetE(ptr noundef nonnull align 8 dereferenceable(8) %0, ptr noundef nonnull align 8 dereferenceable(456) %1) #0 {
  %3 = alloca ptr, align 8
  %4 = alloca ptr, align 8
  %5 = alloca i8, align 1
  %6 = alloca ptr, align 8
  %7 = alloca ptr, align 8
  %8 = alloca ptr, align 8
  %9 = alloca ptr, align 8
  store ptr %0, ptr %3, align 8
  store ptr %1, ptr %4, align 8
  %10 = load ptr, ptr %3, align 8
  %11 = call noundef nonnull align 8 dereferenceable(8) ptr @_ZStlsISt11char_traitsIcEERSt13basic_ostreamIcT_ES5_PKc(ptr noundef nonnull align 8 dereferenceable(8) %10, ptr noundef @.str.7)
  store i8 0, ptr %5, align 1
  %12 = load ptr, ptr %4, align 8
  store ptr %12, ptr %6, align 8
  %13 = load ptr, ptr %6, align 8
  %14 = call noundef ptr @_ZNK32pxrInternal_v0_24__pxrReserved__22HdDataSourceLocatorSet5beginEv(ptr noundef nonnull align 8 dereferenceable(456) %13)
  store ptr %14, ptr %7, align 8
  %15 = load ptr, ptr %6, align 8
  %16 = call noundef ptr @_ZNK32pxrInternal_v0_24__pxrReserved__22HdDataSourceLocatorSet3endEv(ptr noundef nonnull align 8 dereferenceable(456) %15)
  store ptr %16, ptr %8, align 8
  br label %17

17:                                               ; preds = %33, %2
  %18 = load ptr, ptr %7, align 8
  %19 = load ptr, ptr %8, align 8
  %20 = icmp ne ptr %18, %19
  br i1 %20, label %21, label %36

21:                                               ; preds = %17
  %22 = load ptr, ptr %7, align 8
  store ptr %22, ptr %9, align 8
  %23 = load i8, ptr %5, align 1
  %24 = trunc i8 %23 to i1
  br i1 %24, label %25, label %28

25:                                               ; preds = %21
  %26 = load ptr, ptr %3, align 8
  %27 = call noundef nonnull align 8 dereferenceable(8) ptr @_ZStlsISt11char_traitsIcEERSt13basic_ostreamIcT_ES5_PKc(ptr noundef nonnull align 8 dereferenceable(8) %26, ptr noundef @.str.8)
  br label %29

28:                                               ; preds = %21
  store i8 1, ptr %5, align 1
  br label %29

29:                                               ; preds = %28, %25
  %30 = load ptr, ptr %3, align 8
  %31 = load ptr, ptr %9, align 8
  %32 = call noundef nonnull align 8 dereferenceable(8) ptr @_ZN32pxrInternal_v0_24__pxrReserved__lsERSoRKNS_19HdDataSourceLocatorE(ptr noundef nonnull align 8 dereferenceable(8) %30, ptr noundef nonnull align 8 dereferenceable(56) %31)
  br label %33

33:                                               ; preds = %29
  %34 = load ptr, ptr %7, align 8
  %35 = getelementptr inbounds %"class.pxrInternal_v0_24__pxrReserved__::HdDataSourceLocator", ptr %34, i32 1
  store ptr %35, ptr %7, align 8
  br label %17

36:                                               ; preds = %17
  %37 = load ptr, ptr %3, align 8
  %38 = call noundef nonnull align 8 dereferenceable(8) ptr @_ZStlsISt11char_traitsIcEERSt13basic_ostreamIcT_ES5_PKc(ptr noundef nonnull align 8 dereferenceable(8) %37, ptr noundef @.str.9)
  %39 = load ptr, ptr %3, align 8
  ret ptr %39
}