; Function Attrs: mustprogress uwtable
define noundef nonnull align 8 dereferenceable(8) ptr @_ZN32pxrInternal_v0_24__pxrReserved__lsERSoRKNS_22HdDataSourceLocatorSetE(ptr noundef nonnull returned align 8 dereferenceable(8) %0, ptr noundef nonnull readonly align 8 dereferenceable(456) %1) local_unnamed_addr #0 personality ptr @__gxx_personality_v0 {
  %3 = alloca %"class.std::__cxx11::basic_string", align 8
  %4 = tail call noundef nonnull align 8 dereferenceable(8) ptr @_ZStlsISt11char_traitsIcEERSt13basic_ostreamIcT_ES5_PKc(ptr noundef nonnull align 8 dereferenceable(8) %0, ptr noundef nonnull @.str.7)
  %5 = getelementptr inbounds nuw i8, ptr %1, i64 452
  %6 = load i32, ptr %5, align 4
  %7 = icmp ult i32 %6, 9
  %8 = load ptr, ptr %1, align 8
  %spec.select.i.i.i = select i1 %7, ptr %1, ptr %8
  %9 = getelementptr inbounds nuw i8, ptr %1, i64 448
  %10 = load i32, ptr %9, align 8
  %11 = zext i32 %10 to i64
  %12 = getelementptr inbounds %"class.pxrInternal_v0_24__pxrReserved__::HdDataSourceLocator", ptr %spec.select.i.i.i, i64 %11
  %.not15 = icmp eq i32 %10, 0
  br i1 %.not15, label %._crit_edge, label %.lr.ph

.lr.ph:                                           ; preds = %2, %_ZN32pxrInternal_v0_24__pxrReserved__lsERSoRKNS_19HdDataSourceLocatorE.exit
  %.017 = phi i1 [ true, %_ZN32pxrInternal_v0_24__pxrReserved__lsERSoRKNS_19HdDataSourceLocatorE.exit ], [ false, %2 ]
  %.01316 = phi ptr [ %19, %_ZN32pxrInternal_v0_24__pxrReserved__lsERSoRKNS_19HdDataSourceLocatorE.exit ], [ %spec.select.i.i.i, %2 ]
  br i1 %.017, label %13, label %15

13:                                               ; preds = %.lr.ph
  %14 = call noundef nonnull align 8 dereferenceable(8) ptr @_ZStlsISt11char_traitsIcEERSt13basic_ostreamIcT_ES5_PKc(ptr noundef nonnull align 8 dereferenceable(8) %0, ptr noundef nonnull @.str.8)
  br label %15

15:                                               ; preds = %.lr.ph, %13
  call void @llvm.lifetime.start.p0(i64 32, ptr nonnull %3)
  call void @_ZNK32pxrInternal_v0_24__pxrReserved__19HdDataSourceLocator9GetStringB5cxx11EPKc(ptr dead_on_unwind nonnull writable sret(%"class.std::__cxx11::basic_string") align 8 %3, ptr noundef nonnull readonly align 8 dereferenceable(56) %.01316, ptr noundef nonnull @.str)
  %16 = invoke noundef nonnull align 8 dereferenceable(8) ptr @_ZStlsIcSt11char_traitsIcESaIcEERSt13basic_ostreamIT_T0_ES7_RKNSt7__cxx1112basic_stringIS4_S5_T1_EE(ptr noundef nonnull align 8 dereferenceable(8) %0, ptr noundef nonnull align 8 dereferenceable(32) %3)
          to label %_ZN32pxrInternal_v0_24__pxrReserved__lsERSoRKNS_19HdDataSourceLocatorE.exit unwind label %17

17:                                               ; preds = %15
  %18 = landingpad { ptr, i32 }
          cleanup
  call void @_ZNSt7__cxx1112basic_stringIcSt11char_traitsIcESaIcEED1Ev(ptr noundef nonnull align 8 dereferenceable(32) %3) #19
  resume { ptr, i32 } %18

_ZN32pxrInternal_v0_24__pxrReserved__lsERSoRKNS_19HdDataSourceLocatorE.exit: ; preds = %15
  call void @_ZNSt7__cxx1112basic_stringIcSt11char_traitsIcESaIcEED1Ev(ptr noundef nonnull align 8 dereferenceable(32) %3) #19
  call void @llvm.lifetime.end.p0(i64 32, ptr nonnull %3)
  %19 = getelementptr inbounds i8, ptr %.01316, i64 56
  %.not = icmp eq ptr %19, %12
  br i1 %.not, label %._crit_edge, label %.lr.ph

._crit_edge:                                      ; preds = %_ZN32pxrInternal_v0_24__pxrReserved__lsERSoRKNS_19HdDataSourceLocatorE.exit, %2
  %20 = call noundef nonnull align 8 dereferenceable(8) ptr @_ZStlsISt11char_traitsIcEERSt13basic_ostreamIcT_ES5_PKc(ptr noundef nonnull align 8 dereferenceable(8) %0, ptr noundef nonnull @.str.9)
  ret ptr %0
}